; Function Attrs: mustprogress uwtable
define noundef i32 @cvMinEnclosingCircle(ptr noundef %0, ptr noundef writeonly %1, ptr noundef writeonly %2) local_unnamed_addr #0 personality ptr @__gxx_personality_v0 {
  %4 = alloca %"class.cv::AutoBuffer", align 8
  %5 = alloca %"class.cv::Mat", align 8
  %6 = alloca %"class.cv::Point_", align 4
  %7 = alloca float, align 4
  %8 = alloca %"class.cv::_InputArray", align 8
  call void @llvm.lifetime.start.p0(i64 1104, ptr nonnull %4) #18
  %9 = getelementptr inbounds nuw i8, ptr %4, i64 16
  store ptr %9, ptr %4, align 8, !tbaa !82
  %10 = getelementptr inbounds nuw i8, ptr %4, i64 8
  store i64 136, ptr %10, align 8, !tbaa !85
  call void @llvm.lifetime.start.p0(i64 96, ptr nonnull %5) #18
  invoke void @_ZN2cv10cvarrToMatEPKvbbiPNS_10AutoBufferIdLm136EEE(ptr dead_on_unwind nonnull writable sret(%"class.cv::Mat") align 8 %5, ptr noundef %0, i1 noundef zeroext false, i1 noundef zeroext false, i32 noundef 0, ptr noundef nonnull %4)
          to label %11 unwind label %20

11:                                               ; preds = %3
  call void @llvm.lifetime.start.p0(i64 8, ptr nonnull %6) #18
  store float 0.000000e+00, ptr %6, align 4, !tbaa !30
  %12 = getelementptr inbounds nuw i8, ptr %6, i64 4
  store float 0.000000e+00, ptr %12, align 4, !tbaa !27
  call void @llvm.lifetime.start.p0(i64 4, ptr nonnull %7) #18
  call void @llvm.lifetime.start.p0(i64 24, ptr nonnull %8) #18
  %13 = getelementptr inbounds nuw i8, ptr %8, i64 16
  store i32 0, ptr %13, align 8, !tbaa !53
  %14 = getelementptr inbounds nuw i8, ptr %8, i64 20
  store i32 0, ptr %14, align 4, !tbaa !54
  store i32 16842752, ptr %8, align 8, !tbaa !55
  %15 = getelementptr inbounds nuw i8, ptr %8, i64 8
  store ptr %5, ptr %15, align 8, !tbaa !3
  invoke void @_ZN2cv18minEnclosingCircleERKNS_11_InputArrayERNS_6Point_IfEERf(ptr noundef nonnull align 8 dereferenceable(24) %8, ptr noundef nonnull align 4 dereferenceable(8) %6, ptr noundef nonnull align 4 dereferenceable(4) %7)
          to label %16 unwind label %22

16:                                               ; preds = %11
  call void @llvm.lifetime.end.p0(i64 24, ptr nonnull %8) #18
  %.not = icmp eq ptr %1, null
  br i1 %.not, label %24, label %17

17:                                               ; preds = %16
  %18 = load float, ptr %6, align 4, !tbaa !30
  %.sroa.0.0.vec.insert.i = insertelement <2 x float> poison, float %18, i64 0
  %19 = load float, ptr %12, align 4, !tbaa !27
  %.sroa.0.4.vec.insert.i = insertelement <2 x float> %.sroa.0.0.vec.insert.i, float %19, i64 1
  store <2 x float> %.sroa.0.4.vec.insert.i, ptr %1, align 4
  br label %24

20:                                               ; preds = %3
  %21 = landingpad { ptr, i32 }
          cleanup
  br label %31

22:                                               ; preds = %11
  %23 = landingpad { ptr, i32 }
          cleanup
  call void @llvm.lifetime.end.p0(i64 24, ptr nonnull %8) #18
  call void @llvm.lifetime.end.p0(i64 4, ptr nonnull %7) #18
  call void @llvm.lifetime.end.p0(i64 8, ptr nonnull %6) #18
  call void @_ZN2cv3MatD1Ev(ptr noundef nonnull align 8 dereferenceable(96) %5) #18
  br label %31

24:                                               ; preds = %17, %16
  %.not12 = icmp eq ptr %2, null
  br i1 %.not12, label %27, label %25

25:                                               ; preds = %24
  %26 = load float, ptr %7, align 4, !tbaa !31
  store float %26, ptr %2, align 4, !tbaa !31
  br label %27

27:                                               ; preds = %25, %24
  call void @llvm.lifetime.end.p0(i64 4, ptr nonnull %7) #18
  call void @llvm.lifetime.end.p0(i64 8, ptr nonnull %6) #18
  call void @_ZN2cv3MatD1Ev(ptr noundef nonnull align 8 dereferenceable(96) %5) #18
  call void @llvm.lifetime.end.p0(i64 96, ptr nonnull %5) #18
  %28 = load ptr, ptr %4, align 8, !tbaa !82
  %.not.i.i = icmp eq ptr %28, %9
  %29 = icmp eq ptr %28, null
  %or.cond = or i1 %.not.i.i, %29
  br i1 %or.cond, label %_ZN2cv10AutoBufferIdLm136EED2Ev.exit, label %30

30:                                               ; preds = %27
  call void @_ZdaPv(ptr noundef nonnull %28) #20
  br label %_ZN2cv10AutoBufferIdLm136EED2Ev.exit

_ZN2cv10AutoBufferIdLm136EED2Ev.exit:             ; preds = %30, %27
  call void @llvm.lifetime.end.p0(i64 1104, ptr nonnull %4) #18
  ret i32 1

31:                                               ; preds = %22, %20
  %.pn.pn = phi { ptr, i32 } [ %23, %22 ], [ %21, %20 ]
  call void @llvm.lifetime.end.p0(i64 96, ptr nonnull %5) #18
  %32 = load ptr, ptr %4, align 8, !tbaa !82
  %.not.i.i13 = icmp eq ptr %32, %9
  %33 = icmp eq ptr %32, null
  %or.cond15 = or i1 %.not.i.i13, %33
  br i1 %or.cond15, label %_ZN2cv10AutoBufferIdLm136EED2Ev.exit14, label %34

34:                                               ; preds = %31
  call void @_ZdaPv(ptr noundef nonnull %32) #20
  br label %_ZN2cv10AutoBufferIdLm136EED2Ev.exit14

_ZN2cv10AutoBufferIdLm136EED2Ev.exit14:           ; preds = %34, %31
  call void @llvm.lifetime.end.p0(i64 1104, ptr nonnull %4) #18
  resume { ptr, i32 } %.pn.pn
}